; ModuleID = '62/1690.cpp'
source_filename = "62/1690.cpp"
target datalayout = "e-m:e-p270:32:32-p271:32:32-p272:64:64-i64:64-f80:128-n8:16:32:64-S128"
target triple = "x86_64-pc-linux-gnu"

%"class.std::ios_base::Init" = type { i8 }
%"class.std::basic_istream" = type { i32 (...)**, i64, %"class.std::basic_ios" }
%"class.std::basic_ios" = type { %"class.std::ios_base", %"class.std::basic_ostream"*, i8, i8, %"class.std::basic_streambuf"*, %"class.std::ctype"*, %"class.std::num_put"*, %"class.std::num_get"* }
%"class.std::ios_base" = type { i32 (...)**, i64, i64, i32, i32, i32, %"struct.std::ios_base::_Callback_list"*, %"struct.std::ios_base::_Words", [8 x %"struct.std::ios_base::_Words"], i32, %"struct.std::ios_base::_Words"*, %"class.std::locale" }
%"struct.std::ios_base::_Callback_list" = type { %"struct.std::ios_base::_Callback_list"*, void (i32, %"class.std::ios_base"*, i32)*, i32, i32 }
%"struct.std::ios_base::_Words" = type { i8*, i64 }
%"class.std::locale" = type { %"class.std::locale::_Impl"* }
%"class.std::locale::_Impl" = type { i32, %"class.std::locale::facet"**, i64, %"class.std::locale::facet"**, i8** }
%"class.std::locale::facet" = type <{ i32 (...)**, i32, [4 x i8] }>
%"class.std::basic_ostream" = type { i32 (...)**, %"class.std::basic_ios" }
%"class.std::basic_streambuf" = type { i32 (...)**, i8*, i8*, i8*, i8*, i8*, i8*, %"class.std::locale" }
%"class.std::ctype" = type <{ %"class.std::locale::facet.base", [4 x i8], %struct.__locale_struct*, i8, [7 x i8], i32*, i32*, i16*, i8, [256 x i8], [256 x i8], i8, [6 x i8] }>
%"class.std::locale::facet.base" = type <{ i32 (...)**, i32 }>
%struct.__locale_struct = type { [13 x %struct.__locale_data*], i16*, i32*, i32*, [13 x i8*] }
%struct.__locale_data = type opaque
%"class.std::num_put" = type { %"class.std::locale::facet.base", [4 x i8] }
%"class.std::num_get" = type { %"class.std::locale::facet.base", [4 x i8] }

@_ZStL8__ioinit = internal global %"class.std::ios_base::Init" zeroinitializer, align 1
@__dso_handle = external hidden global i8
@_ZSt3cin = external dso_local global %"class.std::basic_istream", align 8
@_ZSt4cout = external dso_local global %"class.std::basic_ostream", align 8
@llvm.global_ctors = appending global [1 x { i32, void ()*, i8* }] [{ i32, void ()*, i8* } { i32 65535, void ()* @_GLOBAL__sub_I_1690.cpp, i8* null }]

; Function Attrs: noinline uwtable
define internal void @__cxx_global_var_init() #0 section ".text.startup" {
  call void @_ZNSt8ios_base4InitC1Ev(%"class.std::ios_base::Init"* @_ZStL8__ioinit)
  %1 = call i32 @__cxa_atexit(void (i8*)* bitcast (void (%"class.std::ios_base::Init"*)* @_ZNSt8ios_base4InitD1Ev to void (i8*)*), i8* getelementptr inbounds (%"class.std::ios_base::Init", %"class.std::ios_base::Init"* @_ZStL8__ioinit, i32 0, i32 0), i8* @__dso_handle) #3
  ret void
}

declare dso_local void @_ZNSt8ios_base4InitC1Ev(%"class.std::ios_base::Init"*) unnamed_addr #1

; Function Attrs: nounwind
declare dso_local void @_ZNSt8ios_base4InitD1Ev(%"class.std::ios_base::Init"*) unnamed_addr #2

; Function Attrs: nounwind
declare dso_local i32 @__cxa_atexit(void (i8*)*, i8*, i8*) #3

; Function Attrs: noinline norecurse uwtable
define dso_local i32 @main() #4 {
  %1 = alloca i32, align 4
  %2 = alloca [201 x i8], align 16
  %3 = alloca i32, align 4
  %4 = alloca i32, align 4
  %5 = alloca i32, align 4
  store i32 0, i32* %1, align 4
  %6 = getelementptr inbounds [201 x i8], [201 x i8]* %2, i64 0, i64 0
  %7 = call dereferenceable(280) %"class.std::basic_istream"* @_ZNSi7getlineEPcl(%"class.std::basic_istream"* @_ZSt3cin, i8* %6, i64 201)
  store i32 0, i32* %4, align 4
  %8 = getelementptr inbounds [201 x i8], [201 x i8]* %2, i64 0, i64 0
  %9 = call i64 @strlen(i8* %8) #6
  %10 = trunc i64 %9 to i32
  store i32 %10, i32* %3, align 4
  store i32 0, i32* %5, align 4
  br label %11

11:                                               ; preds = %35, %0
  %12 = load i32, i32* %5, align 4
  %13 = load i32, i32* %3, align 4
  %14 = icmp slt i32 %12, %13
  br i1 %14, label %15, label %38

15:                                               ; preds = %11
  %16 = load i32, i32* %5, align 4
  %17 = sext i32 %16 to i64
  %18 = getelementptr inbounds [201 x i8], [201 x i8]* %2, i64 0, i64 %17
  %19 = load i8, i8* %18, align 1
  %20 = sext i8 %19 to i32
  %21 = icmp ne i32 %20, 32
  br i1 %21, label %22, label %28

22:                                               ; preds = %15
  store i32 1, i32* %4, align 4
  %23 = load i32, i32* %5, align 4
  %24 = sext i32 %23 to i64
  %25 = getelementptr inbounds [201 x i8], [201 x i8]* %2, i64 0, i64 %24
  %26 = load i8, i8* %25, align 1
  %27 = call dereferenceable(272) %"class.std::basic_ostream"* @_ZStlsISt11char_traitsIcEERSt13basic_ostreamIcT_ES5_c(%"class.std::basic_ostream"* dereferenceable(272) @_ZSt4cout, i8 signext %26)
  br label %34

28:                                               ; preds = %15
  %29 = load i32, i32* %4, align 4
  %30 = icmp eq i32 %29, 1
  br i1 %30, label %31, label %33

31:                                               ; preds = %28
  %32 = call dereferenceable(272) %"class.std::basic_ostream"* @_ZStlsISt11char_traitsIcEERSt13basic_ostreamIcT_ES5_c(%"class.std::basic_ostream"* dereferenceable(272) @_ZSt4cout, i8 signext 32)
  store i32 0, i32* %4, align 4
  br label %33

33:                                               ; preds = %31, %28
  br label %34

34:                                               ; preds = %33, %22
  br label %35

35:                                               ; preds = %34
  %36 = load i32, i32* %5, align 4
  %37 = add nsw i32 %36, 1
  store i32 %37, i32* %5, align 4
  br label %11

38:                                               ; preds = %11
  ret i32 0
}

declare dso_local dereferenceable(280) %"class.std::basic_istream"* @_ZNSi7getlineEPcl(%"class.std::basic_istream"*, i8*, i64) #1

; Function Attrs: nounwind readonly
declare dso_local i64 @strlen(i8*) #5

declare dso_local dereferenceable(272) %"class.std::basic_ostream"* @_ZStlsISt11char_traitsIcEERSt13basic_ostreamIcT_ES5_c(%"class.std::basic_ostream"* dereferenceable(272), i8 signext) #1

; Function Attrs: noinline uwtable
define internal void @_GLOBAL__sub_I_1690.cpp() #0 section ".text.startup" {
  call void @__cxx_global_var_init()
  ret void
}


!llvm.module.flags = !{!0}
!llvm.ident = !{!1}

!0 = !{i32 1, !"wchar_size", i32 4}
!1 = !{!"clang version 10.0.0-4ubuntu1 "}
